; Function Attrs: mustprogress uwtable
define void @_ZN9grpc_core12CallCombiner15ScheduleClosureEP12grpc_closureN4absl12lts_202407226StatusE(ptr noundef nonnull readnone align 8 captures(none) dereferenceable(96) %0, ptr noundef %1, ptr noundef readonly captures(none) %2) local_unnamed_addr #7 align 2 personality ptr @__gxx_personality_v0 {
  %4 = alloca %"class.grpc_core::DebugLocation", align 1
  %5 = alloca %"class.absl::lts_20240722::Status", align 8
  call void @llvm.lifetime.start.p0(i64 1, ptr nonnull %4) #19
  %6 = load i64, ptr %2, align 8, !tbaa !17
  store i64 %6, ptr %5, align 8, !tbaa !17
  %7 = and i64 %6, 1
  %.not.i.i = icmp eq i64 %7, 0
  br i1 %.not.i.i, label %8, label %_ZN4absl12lts_202407226StatusC2ERKS1_.exit

8:                                                ; preds = %3
  %9 = inttoptr i64 %6 to ptr
  %10 = atomicrmw add ptr %9, i32 1 monotonic, align 4
  br label %_ZN4absl12lts_202407226StatusC2ERKS1_.exit

_ZN4absl12lts_202407226StatusC2ERKS1_.exit:       ; preds = %3, %8
  invoke void @_ZN9grpc_core7ExecCtx3RunERKNS_13DebugLocationEP12grpc_closureN4absl12lts_202407226StatusE(ptr noundef nonnull align 1 dereferenceable(1) %4, ptr noundef %1, ptr noundef nonnull %5)
          to label %11 unwind label %19

11:                                               ; preds = %_ZN4absl12lts_202407226StatusC2ERKS1_.exit
  %12 = load i64, ptr %5, align 8, !tbaa !17
  %13 = and i64 %12, 1
  %.not.i.i2 = icmp eq i64 %13, 0
  br i1 %.not.i.i2, label %14, label %_ZN4absl12lts_202407226StatusD2Ev.exit

14:                                               ; preds = %11
  %15 = inttoptr i64 %12 to ptr
  invoke void @_ZNK4absl12lts_2024072215status_internal9StatusRep5UnrefEv(ptr noundef nonnull align 8 dereferenceable(48) %15)
          to label %_ZN4absl12lts_202407226StatusD2Ev.exit unwind label %16

16:                                               ; preds = %14
  %17 = landingpad { ptr, i32 }
          catch ptr null
  %18 = extractvalue { ptr, i32 } %17, 0
  call void @__clang_call_terminate(ptr %18) #21
  unreachable

_ZN4absl12lts_202407226StatusD2Ev.exit:           ; preds = %11, %14
  call void @llvm.lifetime.end.p0(i64 1, ptr nonnull %4) #19
  ret void

19:                                               ; preds = %_ZN4absl12lts_202407226StatusC2ERKS1_.exit
  %20 = landingpad { ptr, i32 }
          cleanup
  call void @_ZN4absl12lts_202407226StatusD2Ev(ptr noundef nonnull align 8 dereferenceable(8) %5) #19
  call void @llvm.lifetime.end.p0(i64 1, ptr nonnull %4) #19
  resume { ptr, i32 } %20
}